; Function Attrs: mustprogress uwtable
define internal noundef ptr @"_ZZN4pkpy6Struct9_registerEPNS_2VMEPNS_8PyObjectES4_EN4$_318__invokeES2_NS_8ArgsViewE"(ptr noundef nonnull %0, ptr nocapture readonly %1, ptr nocapture readnone %2) #3 align 2 {
  %4 = load ptr, ptr %1, align 8
  %5 = tail call i16 @_ZN4pkpy2VM28_find_type_in_cxx_typeid_mapINS_6StructEEENS_4TypeEv(ptr noundef nonnull align 8 dereferenceable(264913) %0)
  %6 = getelementptr inbounds i8, ptr %1, i64 16
  %7 = load ptr, ptr %6, align 8
  %8 = tail call noundef i64 @_ZN4pkpy18_py_cast__internalIlLb1EEET_PNS_2VMEPNS_8PyObjectE(ptr noundef nonnull %0, ptr noundef %7)
  %9 = getelementptr inbounds i8, ptr %4, i64 48
  %10 = load ptr, ptr %9, align 8
  %11 = getelementptr inbounds i8, ptr %10, i64 %8
  %12 = getelementptr inbounds i8, ptr %1, i64 8
  %13 = load ptr, ptr %12, align 8
  %14 = tail call noundef double @_ZN4pkpy18_py_cast__internalIdLb1EEET_PNS_2VMEPNS_8PyObjectE(ptr noundef nonnull %0, ptr noundef %13)
  store double %14, ptr %11, align 8
  %15 = getelementptr inbounds i8, ptr %0, i64 264520
  %16 = load ptr, ptr %15, align 8
  ret ptr %16
}